; Function Attrs: nounwind uwtable
define ptr @l_Lean_FuzzyMatching_fuzzyMatchScore_x3f___lambda__4___boxed(ptr noundef %0, ptr noundef %1, ptr noundef %2) local_unnamed_addr #0 {
  %4 = getelementptr i8, ptr %1, i64 24
  %.val19.i = load i64, ptr %4, align 8, !tbaa !13
  %5 = shl i64 %.val19.i, 1
  %6 = getelementptr i8, ptr %0, i64 24
  %.val.i = load i64, ptr %6, align 8, !tbaa !13
  %7 = shl i64 %.val.i, 1
  %.not.i9 = icmp ult i64 %5, %7
  br i1 %.not.i9, label %10, label %8

8:                                                ; preds = %3
  %9 = tail call ptr @l_Lean_FuzzyMatching_fuzzyMatchScore_x3f___lambda__3(ptr noundef nonnull %0, ptr noundef nonnull %1, ptr nonnull poison)
  br label %l_Lean_FuzzyMatching_fuzzyMatchScore_x3f___lambda__4.exit

10:                                               ; preds = %3
  %11 = ptrtoint ptr %0 to i64
  %12 = and i64 %11, 1
  %.not20.i = icmp eq i64 %12, 0
  br i1 %.not20.i, label %13, label %l_Lean_FuzzyMatching_fuzzyMatchScore_x3f___lambda__4.exit

13:                                               ; preds = %10
  %14 = load i32, ptr %0, align 4, !tbaa !5
  %15 = icmp sgt i32 %14, 1
  br i1 %15, label %16, label %18, !prof !10

16:                                               ; preds = %13
  %17 = add nsw i32 %14, -1
  store i32 %17, ptr %0, align 4, !tbaa !5
  br label %l_Lean_FuzzyMatching_fuzzyMatchScore_x3f___lambda__4.exit

18:                                               ; preds = %13
  %.not.i17.i = icmp eq i32 %14, 0
  br i1 %.not.i17.i, label %l_Lean_FuzzyMatching_fuzzyMatchScore_x3f___lambda__4.exit, label %19

19:                                               ; preds = %18
  tail call void @lean_dec_ref_cold(ptr noundef nonnull %0) #7
  br label %l_Lean_FuzzyMatching_fuzzyMatchScore_x3f___lambda__4.exit

l_Lean_FuzzyMatching_fuzzyMatchScore_x3f___lambda__4.exit: ; preds = %8, %10, %16, %18, %19
  %.0.i = phi ptr [ %9, %8 ], [ inttoptr (i64 1 to ptr), %19 ], [ inttoptr (i64 1 to ptr), %18 ], [ inttoptr (i64 1 to ptr), %16 ], [ inttoptr (i64 1 to ptr), %10 ]
  %20 = ptrtoint ptr %2 to i64
  %21 = and i64 %20, 1
  %.not = icmp eq i64 %21, 0
  br i1 %.not, label %22, label %lean_dec.exit6

22:                                               ; preds = %l_Lean_FuzzyMatching_fuzzyMatchScore_x3f___lambda__4.exit
  %23 = load i32, ptr %2, align 4, !tbaa !5
  %24 = icmp sgt i32 %23, 1
  br i1 %24, label %25, label %27, !prof !10

25:                                               ; preds = %22
  %26 = add nsw i32 %23, -1
  store i32 %26, ptr %2, align 4, !tbaa !5
  br label %lean_dec.exit6

27:                                               ; preds = %22
  %.not.i = icmp eq i32 %23, 0
  br i1 %.not.i, label %lean_dec.exit6, label %28

28:                                               ; preds = %27
  tail call void @lean_dec_ref_cold(ptr noundef nonnull %2) #7
  br label %lean_dec.exit6

lean_dec.exit6:                                   ; preds = %28, %27, %25, %l_Lean_FuzzyMatching_fuzzyMatchScore_x3f___lambda__4.exit
  %29 = ptrtoint ptr %1 to i64
  %30 = and i64 %29, 1
  %.not10 = icmp eq i64 %30, 0
  br i1 %.not10, label %31, label %lean_dec.exit

31:                                               ; preds = %lean_dec.exit6
  %32 = load i32, ptr %1, align 4, !tbaa !5
  %33 = icmp sgt i32 %32, 1
  br i1 %33, label %34, label %36, !prof !10

34:                                               ; preds = %31
  %35 = add nsw i32 %32, -1
  store i32 %35, ptr %1, align 4, !tbaa !5
  br label %lean_dec.exit

36:                                               ; preds = %31
  %.not.i7 = icmp eq i32 %32, 0
  br i1 %.not.i7, label %lean_dec.exit, label %37

37:                                               ; preds = %36
  tail call void @lean_dec_ref_cold(ptr noundef nonnull %1) #7
  br label %lean_dec.exit

lean_dec.exit:                                    ; preds = %37, %36, %34, %lean_dec.exit6
  ret ptr %.0.i
}